target datalayout = "e-m:e-p270:32:32-p271:32:32-p272:64:64-i64:64-i128:128-f80:128-n8:16:32:64-S128"
target triple = "x86_64-unknown-linux-gnu"

%"class.icu_75::StringPiece" = type <{ ptr, i32, [4 x i8] }>

; Function Attrs: mustprogress nounwind uwtable
define linkonce_odr noundef i32 @_ZNK6icu_7511StringPiece6lengthEv(ptr noundef nonnull align 8 dereferenceable(12) %this) #0 comdat align 2 {
entry:
  %this.addr = alloca ptr, align 8
  store ptr %this, ptr %this.addr, align 8
  %this1 = load ptr, ptr %this.addr, align 8
  %length_ = getelementptr inbounds %"class.icu_75::StringPiece", ptr %this1, i32 0, i32 1
  %0 = load i32, ptr %length_, align 8
  ret i32 %0
}

; Function Attrs: mustprogress nounwind uwtable
define linkonce_odr noundef signext i8 @_ZNK6icu_7511StringPiece5emptyEv(ptr noundef nonnull align 8 dereferenceable(12) %this) #0 comdat align 2 {
entry:
  %this.addr = alloca ptr, align 8
  store ptr %this, ptr %this.addr, align 8
  %this1 = load ptr, ptr %this.addr, align 8
  %length_ = getelementptr inbounds %"class.icu_75::StringPiece", ptr %this1, i32 0, i32 1
  %0 = load i32, ptr %length_, align 8
  %cmp = icmp eq i32 %0, 0
  %conv = zext i1 %cmp to i8
  ret i8 %conv
}

; Function Attrs: mustprogress nounwind uwtable
define linkonce_odr noundef ptr @_ZNK6icu_7511StringPiece4dataEv(ptr noundef nonnull align 8 dereferenceable(12) %this) #0 comdat align 2 {
entry:
  %this.addr = alloca ptr, align 8
  store ptr %this, ptr %this.addr, align 8
  %this1 = load ptr, ptr %this.addr, align 8
  %ptr_ = getelementptr inbounds %"class.icu_75::StringPiece", ptr %this1, i32 0, i32 0
  %0 = load ptr, ptr %ptr_, align 8
  ret ptr %0
}

; Function Attrs: mustprogress nounwind uwtable
define internal noundef signext i8 @_ZL9U_FAILURE10UErrorCode(i32 noundef %code) #0 {
entry:
  %code.addr = alloca i32, align 4
  store i32 %code, ptr %code.addr, align 4
  %0 = load i32, ptr %code.addr, align 4
  %cmp = icmp sgt i32 %0, 0
  %conv = zext i1 %cmp to i8
  ret i8 %conv
}

; Function Attrs: mustprogress uwtable
define noundef i32 @_ZNK6icu_7517RuleBasedCollator11compareUTF8ERKNS_11StringPieceES3_R10UErrorCode(ptr noundef nonnull align 8 dereferenceable(272) %this, ptr noundef nonnull align 8 dereferenceable(12) %left, ptr noundef nonnull align 8 dereferenceable(12) %right, ptr noundef nonnull align 4 dereferenceable(4) %errorCode) unnamed_addr #1 align 2 {
entry:
  %retval = alloca i32, align 4
  %this.addr = alloca ptr, align 8
  %left.addr = alloca ptr, align 8
  %right.addr = alloca ptr, align 8
  %errorCode.addr = alloca ptr, align 8
  %leftBytes = alloca ptr, align 8
  %rightBytes = alloca ptr, align 8
  store ptr %this, ptr %this.addr, align 8
  store ptr %left, ptr %left.addr, align 8
  store ptr %right, ptr %right.addr, align 8
  store ptr %errorCode, ptr %errorCode.addr, align 8
  %this1 = load ptr, ptr %this.addr, align 8
  %0 = load ptr, ptr %errorCode.addr, align 8
  %1 = load i32, ptr %0, align 4
  %call = call noundef signext i8 @_ZL9U_FAILURE10UErrorCode(i32 noundef %1)
  %tobool = icmp ne i8 %call, 0
  br i1 %tobool, label %if.then, label %if.end

if.then:                                          ; preds = %entry
  store i32 0, ptr %retval, align 4
  br label %return

if.end:                                           ; preds = %entry
  %2 = load ptr, ptr %left.addr, align 8
  %call2 = call noundef ptr @_ZNK6icu_7511StringPiece4dataEv(ptr noundef nonnull align 8 dereferenceable(12) %2)
  store ptr %call2, ptr %leftBytes, align 8
  %3 = load ptr, ptr %right.addr, align 8
  %call3 = call noundef ptr @_ZNK6icu_7511StringPiece4dataEv(ptr noundef nonnull align 8 dereferenceable(12) %3)
  store ptr %call3, ptr %rightBytes, align 8
  %4 = load ptr, ptr %leftBytes, align 8
  %cmp = icmp eq ptr %4, null
  br i1 %cmp, label %land.lhs.true, label %lor.lhs.false

land.lhs.true:                                    ; preds = %if.end
  %5 = load ptr, ptr %left.addr, align 8
  %call4 = call noundef signext i8 @_ZNK6icu_7511StringPiece5emptyEv(ptr noundef nonnull align 8 dereferenceable(12) %5)
  %tobool5 = icmp ne i8 %call4, 0
  br i1 %tobool5, label %lor.lhs.false, label %if.then10

lor.lhs.false:                                    ; preds = %land.lhs.true, %if.end
  %6 = load ptr, ptr %rightBytes, align 8
  %cmp6 = icmp eq ptr %6, null
  br i1 %cmp6, label %land.lhs.true7, label %if.end11

land.lhs.true7:                                   ; preds = %lor.lhs.false
  %7 = load ptr, ptr %right.addr, align 8
  %call8 = call noundef signext i8 @_ZNK6icu_7511StringPiece5emptyEv(ptr noundef nonnull align 8 dereferenceable(12) %7)
  %tobool9 = icmp ne i8 %call8, 0
  br i1 %tobool9, label %if.end11, label %if.then10

if.then10:                                        ; preds = %land.lhs.true7, %land.lhs.true
  %8 = load ptr, ptr %errorCode.addr, align 8
  store i32 1, ptr %8, align 4
  store i32 0, ptr %retval, align 4
  br label %return

if.end11:                                         ; preds = %land.lhs.true7, %lor.lhs.false
  %9 = load ptr, ptr %leftBytes, align 8
  %10 = load ptr, ptr %left.addr, align 8
  %call12 = call noundef i32 @_ZNK6icu_7511StringPiece6lengthEv(ptr noundef nonnull align 8 dereferenceable(12) %10)
  %11 = load ptr, ptr %rightBytes, align 8
  %12 = load ptr, ptr %right.addr, align 8
  %call13 = call noundef i32 @_ZNK6icu_7511StringPiece6lengthEv(ptr noundef nonnull align 8 dereferenceable(12) %12)
  %13 = load ptr, ptr %errorCode.addr, align 8
  %call14 = call noundef i32 @_ZNK6icu_7517RuleBasedCollator9doCompareEPKhiS2_iR10UErrorCode(ptr noundef nonnull align 8 dereferenceable(272) %this1, ptr noundef %9, i32 noundef %call12, ptr noundef %11, i32 noundef %call13, ptr noundef nonnull align 4 dereferenceable(4) %13)
  store i32 %call14, ptr %retval, align 4
  br label %return

return:                                           ; preds = %if.end11, %if.then10, %if.then
  %14 = load i32, ptr %retval, align 4
  ret i32 %14
}