; Function Attrs: mustprogress uwtable
define noundef i32 @_ZNK6icu_7517RuleBasedCollator11compareUTF8ERKNS_11StringPieceES3_R10UErrorCode(ptr nocapture noundef nonnull readonly align 8 dereferenceable(272) %this, ptr nocapture noundef nonnull readonly align 8 dereferenceable(12) %left, ptr nocapture noundef nonnull readonly align 8 dereferenceable(12) %right, ptr noundef nonnull align 4 dereferenceable(4) %errorCode) unnamed_addr #1 align 2 {
entry:
  %0 = load i32, ptr %errorCode, align 4
  %cmp.i = icmp slt i32 %0, 1
  br i1 %cmp.i, label %if.end, label %return

if.end:                                           ; preds = %entry
  %1 = load ptr, ptr %left, align 8
  %2 = load ptr, ptr %right, align 8
  %cmp = icmp ne ptr %1, null
  %length_.i = getelementptr inbounds i8, ptr %left, i64 8
  %3 = load i32, ptr %length_.i, align 8
  %cmp.i15.not = icmp eq i32 %3, 0
  %or.cond = select i1 %cmp, i1 true, i1 %cmp.i15.not
  br i1 %or.cond, label %lor.lhs.false, label %if.then10

lor.lhs.false:                                    ; preds = %if.end
  %cmp6 = icmp eq ptr %2, null
  %length_.i19 = getelementptr inbounds i8, ptr %right, i64 8
  %4 = load i32, ptr %length_.i19, align 8
  br i1 %cmp6, label %land.lhs.true7, label %lor.lhs.false.split

lor.lhs.false.split:                              ; preds = %lor.lhs.false
  %call1411 = tail call noundef i32 @_ZNK6icu_7517RuleBasedCollator9doCompareEPKhiS2_iR10UErrorCode(ptr noundef nonnull align 8 dereferenceable(272) %this, ptr noundef %1, i32 noundef %3, ptr noundef nonnull %2, i32 noundef %4, ptr noundef nonnull align 4 dereferenceable(4) %errorCode)
  br label %return

land.lhs.true7:                                   ; preds = %lor.lhs.false
  %cmp.i20.not = icmp eq i32 %4, 0
  br i1 %cmp.i20.not, label %land.lhs.true7.split, label %if.then10

land.lhs.true7.split:                             ; preds = %land.lhs.true7
  %call1414 = tail call noundef i32 @_ZNK6icu_7517RuleBasedCollator9doCompareEPKhiS2_iR10UErrorCode(ptr noundef nonnull align 8 dereferenceable(272) %this, ptr noundef %1, i32 noundef %3, ptr noundef null, i32 noundef 0, ptr noundef nonnull align 4 dereferenceable(4) %errorCode)
  br label %return

if.then10:                                        ; preds = %if.end, %land.lhs.true7
  store i32 1, ptr %errorCode, align 4
  br label %return

return:                                           ; preds = %lor.lhs.false.split, %land.lhs.true7.split, %entry, %if.then10
  %retval.0 = phi i32 [ 0, %if.then10 ], [ 0, %entry ], [ %call1411, %lor.lhs.false.split ], [ %call1414, %land.lhs.true7.split ]
  ret i32 %retval.0
}